(dp1
I0
Vaffirm
p2
sI1
Vask_borders
p3
sI2
Vask_corporations
p4
sI3
Vask_defense
p5
sI4
Vask_energy
p6
sI5
Vask_guncontrol
p7
sI6
Vask_healthcare
p8
sI7
Vask_internet
p9
sI8
Vask_marijuana
p10
sI9
Vask_space
p11
sI10
Vask_transit
p12
sI11
Vcandidates
p13
sI12
Vdeny
p14
sI13
Vgoodbye
p15
sI14
Vgreet
p16
sI15
Vhelp
p17
sI16
Vissues
p18
sI17
Vquestionaire
p19
sI18
Vthanks
p20
s.